target datalayout = "e-m:e-p270:32:32-p271:32:32-p272:64:64-i64:64-i128:128-f80:128-n8:16:32:64-S128"
target triple = "x86_64-pc-linux-gnu"

%struct.type_and_structure_st = type { ptr, ptr }
%struct.evp_pkey_st = type { i32, i32, ptr, ptr, ptr, %union.legacy_pkey_st, %union.legacy_pkey_st, %struct.CRYPTO_REF_COUNT, ptr, ptr, i32, i8, %struct.crypto_ex_data_st, ptr, ptr, i64, ptr, i64, %struct.anon }
%union.legacy_pkey_st = type { ptr }
%struct.CRYPTO_REF_COUNT = type { i32 }
%struct.crypto_ex_data_st = type { ptr, ptr }
%struct.anon = type { i32, i32, i32 }

@.str.2 = private unnamed_addr constant [33 x i8] c"../openssl/crypto/asn1/i2d_evp.c\00", align 1
@i2d_PublicKey.output_info = internal constant [3 x %struct.type_and_structure_st] [%struct.type_and_structure_st { ptr @.str, ptr @.str.1 }, %struct.type_and_structure_st { ptr @.str.4, ptr null }, %struct.type_and_structure_st zeroinitializer], align 16
@__func__.i2d_PublicKey = private unnamed_addr constant [14 x i8] c"i2d_PublicKey\00", align 1

; Function Attrs: nounwind uwtable
define i32 @i2d_PublicKey(ptr noundef %0, ptr noundef %1) #0 {
  %3 = alloca i32, align 4
  %4 = alloca ptr, align 8
  %5 = alloca ptr, align 8
  store ptr %0, ptr %4, align 8, !tbaa !3
  store ptr %1, ptr %5, align 8, !tbaa !8
  %6 = load ptr, ptr %4, align 8, !tbaa !3
  %7 = getelementptr inbounds nuw %struct.evp_pkey_st, ptr %6, i32 0, i32 13
  %8 = load ptr, ptr %7, align 8, !tbaa !10
  %9 = icmp ne ptr %8, null
  br i1 %9, label %10, label %14

10:                                               ; preds = %2
  %11 = load ptr, ptr %4, align 8, !tbaa !3
  %12 = load ptr, ptr %5, align 8, !tbaa !8
  %13 = call i32 @i2d_provided(ptr noundef %11, i32 noundef 134, ptr noundef @i2d_PublicKey.output_info, ptr noundef %12)
  store i32 %13, ptr %3, align 4
  br label %33

14:                                               ; preds = %2
  %15 = load ptr, ptr %4, align 8, !tbaa !3
  %16 = call i32 @EVP_PKEY_get_base_id(ptr noundef %15)
  switch i32 %16, label %32 [
    i32 6, label %17
    i32 116, label %22
    i32 408, label %27
  ]

17:                                               ; preds = %14
  %18 = load ptr, ptr %4, align 8, !tbaa !3
  %19 = call ptr @EVP_PKEY_get0_RSA(ptr noundef %18)
  %20 = load ptr, ptr %5, align 8, !tbaa !8
  %21 = call i32 @i2d_RSAPublicKey(ptr noundef %19, ptr noundef %20)
  store i32 %21, ptr %3, align 4
  br label %33

22:                                               ; preds = %14
  %23 = load ptr, ptr %4, align 8, !tbaa !3
  %24 = call ptr @EVP_PKEY_get0_DSA(ptr noundef %23)
  %25 = load ptr, ptr %5, align 8, !tbaa !8
  %26 = call i32 @i2d_DSAPublicKey(ptr noundef %24, ptr noundef %25)
  store i32 %26, ptr %3, align 4
  br label %33

27:                                               ; preds = %14
  %28 = load ptr, ptr %4, align 8, !tbaa !3
  %29 = call ptr @EVP_PKEY_get0_EC_KEY(ptr noundef %28)
  %30 = load ptr, ptr %5, align 8, !tbaa !8
  %31 = call i32 @i2o_ECPublicKey(ptr noundef %29, ptr noundef %30)
  store i32 %31, ptr %3, align 4
  br label %33

32:                                               ; preds = %14
  call void @ERR_new()
  call void @ERR_set_debug(ptr noundef @.str.2, i32 noundef 145, ptr noundef @__func__.i2d_PublicKey)
  call void (i32, i32, ptr, ...) @ERR_set_error(i32 noundef 13, i32 noundef 167, ptr noundef null)
  store i32 -1, ptr %3, align 4
  br label %33

33:                                               ; preds = %32, %27, %22, %17, %10
  %34 = load i32, ptr %3, align 4
  ret i32 %34
}