; Function Attrs: nounwind uwtable
define i32 @i2d_PublicKey(ptr noundef %0, ptr noundef %1) local_unnamed_addr #0 {
  %3 = getelementptr inbounds nuw i8, ptr %0, i64 96
  %4 = load ptr, ptr %3, align 8, !tbaa !3
  %.not = icmp eq ptr %4, null
  br i1 %.not, label %7, label %5

5:                                                ; preds = %2
  %6 = tail call fastcc i32 @i2d_provided(ptr noundef nonnull %0, i32 noundef 134, ptr noundef nonnull @i2d_PublicKey.output_info, ptr noundef %1)
  br label %19

7:                                                ; preds = %2
  %8 = tail call i32 @EVP_PKEY_get_base_id(ptr noundef nonnull %0) #3
  switch i32 %8, label %18 [
    i32 6, label %9
    i32 116, label %12
    i32 408, label %15
  ]

9:                                                ; preds = %7
  %10 = tail call ptr @EVP_PKEY_get0_RSA(ptr noundef nonnull %0) #3
  %11 = tail call i32 @i2d_RSAPublicKey(ptr noundef %10, ptr noundef %1) #3
  br label %19

12:                                               ; preds = %7
  %13 = tail call ptr @EVP_PKEY_get0_DSA(ptr noundef nonnull %0) #3
  %14 = tail call i32 @i2d_DSAPublicKey(ptr noundef %13, ptr noundef %1) #3
  br label %19

15:                                               ; preds = %7
  %16 = tail call ptr @EVP_PKEY_get0_EC_KEY(ptr noundef nonnull %0) #3
  %17 = tail call i32 @i2o_ECPublicKey(ptr noundef %16, ptr noundef %1) #3
  br label %19

18:                                               ; preds = %7
  tail call void @ERR_new() #3
  tail call void @ERR_set_debug(ptr noundef nonnull @.str.2, i32 noundef 145, ptr noundef nonnull @__func__.i2d_PublicKey) #3
  tail call void (i32, i32, ptr, ...) @ERR_set_error(i32 noundef 13, i32 noundef 167, ptr noundef null) #3
  br label %19

19:                                               ; preds = %18, %15, %12, %9, %5
  %.0 = phi i32 [ %6, %5 ], [ -1, %18 ], [ %17, %15 ], [ %14, %12 ], [ %11, %9 ]
  ret i32 %.0
}